target datalayout = "e-m:e-p270:32:32-p271:32:32-p272:64:64-i64:64-i128:128-f80:128-n8:16:32:64-S128"
target triple = "x86_64-pc-linux-gnu"

%struct.MvcCubeStruct = type { ptr, i32, i32, [1 x i32] }
%struct.MvcCoverStruct = type { i32, i32, i32, %struct.MvcListStruct, ptr, i32, ptr, ptr, ptr }
%struct.MvcListStruct = type { ptr, ptr, i32 }

@.str = private unnamed_addr constant [42 x i8] c"Cube %2d out of %2d contains dirty bits.\0A\00", align 1

; Function Attrs: nounwind uwtable
define i32 @Mvc_UtilsCheckUnusedZeros(ptr noundef %0) #0 {
  %2 = alloca ptr, align 8
  %3 = alloca i32, align 4
  %4 = alloca ptr, align 8
  %5 = alloca i32, align 4
  store ptr %0, ptr %2, align 8, !tbaa !3
  call void @llvm.lifetime.start.p0(i64 4, ptr %3) #3
  call void @llvm.lifetime.start.p0(i64 8, ptr %4) #3
  call void @llvm.lifetime.start.p0(i64 4, ptr %5) #3
  store i32 0, ptr %5, align 4, !tbaa !10
  %6 = load ptr, ptr %2, align 8, !tbaa !3
  %7 = getelementptr inbounds nuw %struct.MvcCoverStruct, ptr %6, i32 0, i32 3
  %8 = getelementptr inbounds nuw %struct.MvcListStruct, ptr %7, i32 0, i32 0
  %9 = load ptr, ptr %8, align 8, !tbaa !14
  store ptr %9, ptr %4, align 8, !tbaa !8
  br label %10

10:                                               ; preds = %49, %1
  %11 = load ptr, ptr %4, align 8, !tbaa !8
  %12 = icmp ne ptr %11, null
  br i1 %12, label %13, label %53

13:                                               ; preds = %10
  %14 = load ptr, ptr %4, align 8, !tbaa !8
  %15 = getelementptr inbounds nuw %struct.MvcCubeStruct, ptr %14, i32 0, i32 1
  %16 = load i32, ptr %15, align 8
  %17 = lshr i32 %16, 24
  %18 = and i32 %17, 63
  %19 = icmp eq i32 %18, 0
  br i1 %19, label %20, label %21

20:                                               ; preds = %13
  br label %49

21:                                               ; preds = %13
  %22 = load ptr, ptr %4, align 8, !tbaa !8
  %23 = getelementptr inbounds nuw %struct.MvcCubeStruct, ptr %22, i32 0, i32 3
  %24 = load ptr, ptr %4, align 8, !tbaa !8
  %25 = getelementptr inbounds nuw %struct.MvcCubeStruct, ptr %24, i32 0, i32 1
  %26 = load i32, ptr %25, align 8
  %27 = and i32 %26, 16777215
  %28 = zext i32 %27 to i64
  %29 = getelementptr inbounds nuw [1 x i32], ptr %23, i64 0, i64 %28
  %30 = load i32, ptr %29, align 4, !tbaa !10
  %31 = load ptr, ptr %4, align 8, !tbaa !8
  %32 = getelementptr inbounds nuw %struct.MvcCubeStruct, ptr %31, i32 0, i32 1
  %33 = load i32, ptr %32, align 8
  %34 = lshr i32 %33, 24
  %35 = and i32 %34, 63
  %36 = sub nsw i32 32, %35
  %37 = shl i32 -1, %36
  %38 = and i32 %30, %37
  store i32 %38, ptr %3, align 4, !tbaa !10
  %39 = load i32, ptr %3, align 4, !tbaa !10
  %40 = icmp ne i32 %39, 0
  br i1 %40, label %41, label %46

41:                                               ; preds = %21
  %42 = load i32, ptr %5, align 4, !tbaa !10
  %43 = load ptr, ptr %2, align 8, !tbaa !3
  %44 = call i32 @Mvc_CoverReadCubeNum(ptr noundef %43)
  %45 = call i32 (ptr, ...) @printf(ptr noundef @.str, i32 noundef %42, i32 noundef %44)
  br label %46

46:                                               ; preds = %41, %21
  %47 = load i32, ptr %5, align 4, !tbaa !10
  %48 = add nsw i32 %47, 1
  store i32 %48, ptr %5, align 4, !tbaa !10
  br label %49

49:                                               ; preds = %46, %20
  %50 = load ptr, ptr %4, align 8, !tbaa !8
  %51 = getelementptr inbounds nuw %struct.MvcCubeStruct, ptr %50, i32 0, i32 0
  %52 = load ptr, ptr %51, align 8, !tbaa !21
  store ptr %52, ptr %4, align 8, !tbaa !8
  br label %10, !llvm.loop !68

53:                                               ; preds = %10
  call void @llvm.lifetime.end.p0(i64 4, ptr %5) #3
  call void @llvm.lifetime.end.p0(i64 8, ptr %4) #3
  call void @llvm.lifetime.end.p0(i64 4, ptr %3) #3
  ret i32 1
}