; Function Attrs: nounwind uwtable
define noundef i32 @Mvc_UtilsCheckUnusedZeros(ptr noundef %0) local_unnamed_addr #1 {
  %2 = getelementptr inbounds nuw i8, ptr %0, i64 16
  %.01013 = load ptr, ptr %2, align 8, !tbaa !7
  %.not14 = icmp eq ptr %.01013, null
  br i1 %.not14, label %._crit_edge, label %.lr.ph

.lr.ph:                                           ; preds = %1, %21
  %.01016 = phi ptr [ %.010, %21 ], [ %.01013, %1 ]
  %.015 = phi i32 [ %.1, %21 ], [ 0, %1 ]
  %3 = getelementptr inbounds nuw i8, ptr %.01016, i64 8
  %4 = load i32, ptr %3, align 8
  %5 = lshr i32 %4, 24
  %6 = and i32 %5, 63
  %7 = icmp eq i32 %6, 0
  br i1 %7, label %21, label %8

8:                                                ; preds = %.lr.ph
  %9 = getelementptr inbounds nuw i8, ptr %.01016, i64 16
  %10 = and i32 %4, 16777215
  %11 = zext nneg i32 %10 to i64
  %12 = getelementptr inbounds nuw [1 x i32], ptr %9, i64 0, i64 %11
  %13 = load i32, ptr %12, align 4, !tbaa !3
  %14 = sub nsw i32 32, %6
  %15 = lshr i32 %13, %14
  %.not12 = icmp eq i32 %15, 0
  br i1 %.not12, label %19, label %16

16:                                               ; preds = %8
  %17 = tail call i32 @Mvc_CoverReadCubeNum(ptr noundef %0) #6
  %18 = tail call i32 (ptr, ...) @printf(ptr noundef nonnull dereferenceable(1) @.str, i32 noundef %.015, i32 noundef %17)
  br label %19

19:                                               ; preds = %16, %8
  %20 = add nsw i32 %.015, 1
  br label %21

21:                                               ; preds = %.lr.ph, %19
  %.1 = phi i32 [ %.015, %.lr.ph ], [ %20, %19 ]
  %.010 = load ptr, ptr %.01016, align 8, !tbaa !7
  %.not = icmp eq ptr %.010, null
  br i1 %.not, label %._crit_edge, label %.lr.ph, !llvm.loop !55

._crit_edge:                                      ; preds = %21, %1
  ret i32 1
}